; ModuleID = '22/183.c'
source_filename = "22/183.c"
target datalayout = "e-m:e-p270:32:32-p271:32:32-p272:64:64-i64:64-f80:128-n8:16:32:64-S128"
target triple = "x86_64-pc-linux-gnu"

@.str = private unnamed_addr constant [3 x i8] c"%s\00", align 1
@.str.1 = private unnamed_addr constant [3 x i8] c"No\00", align 1
@.str.2 = private unnamed_addr constant [4 x i8] c"%d\0A\00", align 1

; Function Attrs: noinline nounwind uwtable
define dso_local void @main() #0 {
  %1 = alloca [301 x i8], align 16
  %2 = alloca i32, align 4
  %3 = alloca i32, align 4
  %4 = alloca i32, align 4
  %5 = alloca i32, align 4
  %6 = alloca i32, align 4
  %7 = alloca i32, align 4
  %8 = alloca [100 x i32], align 16
  %9 = alloca [100 x i32], align 16
  store i32 0, i32* %4, align 4
  store i32 0, i32* %5, align 4
  %10 = call i32 (i8*, ...) @__isoc99_scanf(i8* getelementptr inbounds ([3 x i8], [3 x i8]* @.str, i64 0, i64 0), [301 x i8]* %1)
  store i32 0, i32* %2, align 4
  br label %11

11:                                               ; preds = %69, %0
  %12 = load i32, i32* %2, align 4
  %13 = sext i32 %12 to i64
  %14 = getelementptr inbounds [301 x i8], [301 x i8]* %1, i64 0, i64 %13
  %15 = load i8, i8* %14, align 1
  %16 = sext i8 %15 to i32
  %17 = icmp ne i32 %16, 0
  br i1 %17, label %18, label %72

18:                                               ; preds = %11
  %19 = load i32, i32* %2, align 4
  %20 = sext i32 %19 to i64
  %21 = getelementptr inbounds [301 x i8], [301 x i8]* %1, i64 0, i64 %20
  %22 = load i8, i8* %21, align 1
  %23 = sext i8 %22 to i32
  %24 = icmp sge i32 %23, 48
  br i1 %24, label %25, label %68

25:                                               ; preds = %18
  %26 = load i32, i32* %2, align 4
  %27 = sext i32 %26 to i64
  %28 = getelementptr inbounds [301 x i8], [301 x i8]* %1, i64 0, i64 %27
  %29 = load i8, i8* %28, align 1
  %30 = sext i8 %29 to i32
  %31 = icmp sle i32 %30, 57
  br i1 %31, label %32, label %68

32:                                               ; preds = %25
  store i32 0, i32* %6, align 4
  br label %33

33:                                               ; preds = %49, %32
  %34 = load i32, i32* %2, align 4
  %35 = sext i32 %34 to i64
  %36 = getelementptr inbounds [301 x i8], [301 x i8]* %1, i64 0, i64 %35
  %37 = load i8, i8* %36, align 1
  %38 = sext i8 %37 to i32
  %39 = icmp sge i32 %38, 48
  br i1 %39, label %40, label %47

40:                                               ; preds = %33
  %41 = load i32, i32* %2, align 4
  %42 = sext i32 %41 to i64
  %43 = getelementptr inbounds [301 x i8], [301 x i8]* %1, i64 0, i64 %42
  %44 = load i8, i8* %43, align 1
  %45 = sext i8 %44 to i32
  %46 = icmp sle i32 %45, 57
  br label %47

47:                                               ; preds = %40, %33
  %48 = phi i1 [ false, %33 ], [ %46, %40 ]
  br i1 %48, label %49, label %61

49:                                               ; preds = %47
  %50 = load i32, i32* %6, align 4
  %51 = mul nsw i32 %50, 10
  %52 = load i32, i32* %2, align 4
  %53 = sext i32 %52 to i64
  %54 = getelementptr inbounds [301 x i8], [301 x i8]* %1, i64 0, i64 %53
  %55 = load i8, i8* %54, align 1
  %56 = sext i8 %55 to i32
  %57 = add nsw i32 %51, %56
  %58 = sub nsw i32 %57, 48
  store i32 %58, i32* %6, align 4
  %59 = load i32, i32* %2, align 4
  %60 = add nsw i32 %59, 1
  store i32 %60, i32* %2, align 4
  br label %33

61:                                               ; preds = %47
  %62 = load i32, i32* %6, align 4
  %63 = load i32, i32* %4, align 4
  %64 = sext i32 %63 to i64
  %65 = getelementptr inbounds [100 x i32], [100 x i32]* %8, i64 0, i64 %64
  store i32 %62, i32* %65, align 4
  %66 = load i32, i32* %4, align 4
  %67 = add nsw i32 %66, 1
  store i32 %67, i32* %4, align 4
  br label %68

68:                                               ; preds = %61, %25, %18
  br label %69

69:                                               ; preds = %68
  %70 = load i32, i32* %2, align 4
  %71 = add nsw i32 %70, 1
  store i32 %71, i32* %2, align 4
  br label %11

72:                                               ; preds = %11
  %73 = load i32, i32* %4, align 4
  %74 = icmp eq i32 %73, 0
  br i1 %74, label %78, label %75

75:                                               ; preds = %72
  %76 = load i32, i32* %4, align 4
  %77 = icmp eq i32 %76, 1
  br i1 %77, label %78, label %80

78:                                               ; preds = %75, %72
  %79 = call i32 (i8*, ...) @printf(i8* getelementptr inbounds ([3 x i8], [3 x i8]* @.str.1, i64 0, i64 0))
  br label %171

80:                                               ; preds = %75
  store i32 0, i32* %2, align 4
  br label %81

81:                                               ; preds = %128, %80
  %82 = load i32, i32* %2, align 4
  %83 = load i32, i32* %4, align 4
  %84 = sub nsw i32 %83, 1
  %85 = icmp slt i32 %82, %84
  br i1 %85, label %86, label %131

86:                                               ; preds = %81
  store i32 0, i32* %3, align 4
  br label %87

87:                                               ; preds = %124, %86
  %88 = load i32, i32* %3, align 4
  %89 = load i32, i32* %4, align 4
  %90 = sub nsw i32 %89, 1
  %91 = load i32, i32* %2, align 4
  %92 = sub nsw i32 %90, %91
  %93 = icmp slt i32 %88, %92
  br i1 %93, label %94, label %127

94:                                               ; preds = %87
  %95 = load i32, i32* %3, align 4
  %96 = sext i32 %95 to i64
  %97 = getelementptr inbounds [100 x i32], [100 x i32]* %8, i64 0, i64 %96
  %98 = load i32, i32* %97, align 4
  %99 = load i32, i32* %3, align 4
  %100 = add nsw i32 %99, 1
  %101 = sext i32 %100 to i64
  %102 = getelementptr inbounds [100 x i32], [100 x i32]* %8, i64 0, i64 %101
  %103 = load i32, i32* %102, align 4
  %104 = icmp sgt i32 %98, %103
  br i1 %104, label %105, label %123

105:                                              ; preds = %94
  %106 = load i32, i32* %3, align 4
  %107 = sext i32 %106 to i64
  %108 = getelementptr inbounds [100 x i32], [100 x i32]* %8, i64 0, i64 %107
  %109 = load i32, i32* %108, align 4
  store i32 %109, i32* %7, align 4
  %110 = load i32, i32* %3, align 4
  %111 = add nsw i32 %110, 1
  %112 = sext i32 %111 to i64
  %113 = getelementptr inbounds [100 x i32], [100 x i32]* %8, i64 0, i64 %112
  %114 = load i32, i32* %113, align 4
  %115 = load i32, i32* %3, align 4
  %116 = sext i32 %115 to i64
  %117 = getelementptr inbounds [100 x i32], [100 x i32]* %8, i64 0, i64 %116
  store i32 %114, i32* %117, align 4
  %118 = load i32, i32* %7, align 4
  %119 = load i32, i32* %3, align 4
  %120 = add nsw i32 %119, 1
  %121 = sext i32 %120 to i64
  %122 = getelementptr inbounds [100 x i32], [100 x i32]* %8, i64 0, i64 %121
  store i32 %118, i32* %122, align 4
  br label %123

123:                                              ; preds = %105, %94
  br label %124

124:                                              ; preds = %123
  %125 = load i32, i32* %3, align 4
  %126 = add nsw i32 %125, 1
  store i32 %126, i32* %3, align 4
  br label %87

127:                                              ; preds = %87
  br label %128

128:                                              ; preds = %127
  %129 = load i32, i32* %2, align 4
  %130 = add nsw i32 %129, 1
  store i32 %130, i32* %2, align 4
  br label %81

131:                                              ; preds = %81
  %132 = load i32, i32* %4, align 4
  %133 = sub nsw i32 %132, 2
  store i32 %133, i32* %2, align 4
  br label %134

134:                                              ; preds = %158, %131
  %135 = load i32, i32* %2, align 4
  %136 = icmp sge i32 %135, 0
  br i1 %136, label %137, label %161

137:                                              ; preds = %134
  %138 = load i32, i32* %2, align 4
  %139 = sext i32 %138 to i64
  %140 = getelementptr inbounds [100 x i32], [100 x i32]* %8, i64 0, i64 %139
  %141 = load i32, i32* %140, align 4
  %142 = load i32, i32* %4, align 4
  %143 = sub nsw i32 %142, 1
  %144 = sext i32 %143 to i64
  %145 = getelementptr inbounds [100 x i32], [100 x i32]* %8, i64 0, i64 %144
  %146 = load i32, i32* %145, align 4
  %147 = icmp ne i32 %141, %146
  br i1 %147, label %148, label %157

148:                                              ; preds = %137
  %149 = load i32, i32* %2, align 4
  %150 = sext i32 %149 to i64
  %151 = getelementptr inbounds [100 x i32], [100 x i32]* %8, i64 0, i64 %150
  %152 = load i32, i32* %151, align 4
  %153 = load i32, i32* %5, align 4
  %154 = add nsw i32 %153, 1
  store i32 %154, i32* %5, align 4
  %155 = sext i32 %153 to i64
  %156 = getelementptr inbounds [100 x i32], [100 x i32]* %9, i64 0, i64 %155
  store i32 %152, i32* %156, align 4
  br label %157

157:                                              ; preds = %148, %137
  br label %158

158:                                              ; preds = %157
  %159 = load i32, i32* %2, align 4
  %160 = add nsw i32 %159, -1
  store i32 %160, i32* %2, align 4
  br label %134

161:                                              ; preds = %134
  %162 = load i32, i32* %5, align 4
  %163 = icmp sgt i32 %162, 0
  br i1 %163, label %164, label %168

164:                                              ; preds = %161
  %165 = getelementptr inbounds [100 x i32], [100 x i32]* %9, i64 0, i64 0
  %166 = load i32, i32* %165, align 16
  %167 = call i32 (i8*, ...) @printf(i8* getelementptr inbounds ([4 x i8], [4 x i8]* @.str.2, i64 0, i64 0), i32 %166)
  br label %170

168:                                              ; preds = %161
  %169 = call i32 (i8*, ...) @printf(i8* getelementptr inbounds ([3 x i8], [3 x i8]* @.str.1, i64 0, i64 0))
  br label %170

170:                                              ; preds = %168, %164
  br label %171

171:                                              ; preds = %170, %78
  ret void
}

declare dso_local i32 @__isoc99_scanf(i8*, ...) #1

declare dso_local i32 @printf(i8*, ...) #1


!llvm.module.flags = !{!0}
!llvm.ident = !{!1}

!0 = !{i32 1, !"wchar_size", i32 4}
!1 = !{!"clang version 10.0.0-4ubuntu1 "}
